target datalayout = "e-m:e-p270:32:32-p271:32:32-p272:64:64-i64:64-i128:128-f80:128-n8:16:32:64-S128"
target triple = "x86_64-pc-linux-gnu"

%struct.git_hash_algo = type { ptr, i32, i64, i64, i64, ptr, ptr, ptr, ptr, ptr, ptr, ptr, ptr, ptr }
%struct.multi_pack_index = type { ptr, ptr, i64, ptr, ptr, i64, i32, i8, i8, i8, i32, i32, i32, i32, i32, ptr, i64, ptr, i64, ptr, ptr, ptr, ptr, i64, ptr, i64, ptr, i32, i32, ptr, ptr, ptr, [0 x i8] }
%struct.repository = type { ptr, ptr, ptr, ptr, ptr, %struct.strmap, %struct.strmap, %struct.repo_path_cache, ptr, ptr, ptr, ptr, %struct.repo_settings, ptr, ptr, ptr, ptr, ptr, ptr, i32, i32, i32, ptr, ptr, i32, i32, i8 }
%struct.strmap = type { %struct.hashmap, ptr, i8 }
%struct.hashmap = type { ptr, ptr, ptr, i32, i32, i32, i32, i8 }
%struct.repo_path_cache = type { ptr, ptr, ptr, ptr, ptr, ptr, ptr }
%struct.repo_settings = type { i32, i32, i32, i32, i32, i32, i32, i32, i32, i32, i32, i32, ptr, i32, i32, i32, i32, i32, i32, i32, i64, i64, i64 }
%struct.packed_git = type { %struct.hashmap_entry, ptr, %struct.list_head, ptr, i64, ptr, i64, i32, i64, %struct.oidset, i32, i64, i32, i32, i8, [32 x i8], ptr, ptr, ptr, i64, ptr, i64, ptr, [0 x i8] }
%struct.hashmap_entry = type { ptr, i32 }
%struct.list_head = type { ptr, ptr }
%struct.oidset = type { %struct.kh_oid_set }
%struct.kh_oid_set = type { i32, i32, i32, i32, ptr, ptr, ptr }
%struct.object_id = type { [32 x i8], i32 }
%struct.pack_entry = type { i64, ptr }

@.str.43 = private unnamed_addr constant [7 x i8] c"midx.c\00", align 1
@.str.64 = private unnamed_addr constant [46 x i8] c"NULL multi-pack-index for object position: %u\00", align 1
@.str.65 = private unnamed_addr constant [53 x i8] c"invalid MIDX object position, MIDX is likely corrupt\00", align 1

; Function Attrs: inlinehint nounwind uwtable
define internal i32 @get_be32(ptr noundef %0) #2 {
  %2 = alloca ptr, align 8
  %3 = alloca ptr, align 8
  store ptr %0, ptr %2, align 8, !tbaa !43
  call void @llvm.lifetime.start.p0(i64 8, ptr %3) #13
  %4 = load ptr, ptr %2, align 8, !tbaa !43
  store ptr %4, ptr %3, align 8, !tbaa !9
  %5 = load ptr, ptr %3, align 8, !tbaa !9
  %6 = getelementptr inbounds i8, ptr %5, i64 0
  %7 = load i8, ptr %6, align 1, !tbaa !49
  %8 = zext i8 %7 to i32
  %9 = shl i32 %8, 24
  %10 = load ptr, ptr %3, align 8, !tbaa !9
  %11 = getelementptr inbounds i8, ptr %10, i64 1
  %12 = load i8, ptr %11, align 1, !tbaa !49
  %13 = zext i8 %12 to i32
  %14 = shl i32 %13, 16
  %15 = or i32 %9, %14
  %16 = load ptr, ptr %3, align 8, !tbaa !9
  %17 = getelementptr inbounds i8, ptr %16, i64 2
  %18 = load i8, ptr %17, align 1, !tbaa !49
  %19 = zext i8 %18 to i32
  %20 = shl i32 %19, 8
  %21 = or i32 %15, %20
  %22 = load ptr, ptr %3, align 8, !tbaa !9
  %23 = getelementptr inbounds i8, ptr %22, i64 3
  %24 = load i8, ptr %23, align 1, !tbaa !49
  %25 = zext i8 %24 to i32
  %26 = shl i32 %25, 0
  %27 = or i32 %21, %26
  call void @llvm.lifetime.end.p0(i64 8, ptr %3) #13
  ret i32 %27
}

; Function Attrs: nounwind uwtable
define dso_local i32 @bsearch_one_midx(ptr noundef %0, ptr noundef %1, ptr noundef %2) #0 {
  %4 = alloca ptr, align 8
  %5 = alloca ptr, align 8
  %6 = alloca ptr, align 8
  %7 = alloca i32, align 4
  store ptr %0, ptr %4, align 8, !tbaa !81
  store ptr %1, ptr %5, align 8, !tbaa !4
  store ptr %2, ptr %6, align 8, !tbaa !73
  call void @llvm.lifetime.start.p0(i64 4, ptr %7) #13
  %8 = load ptr, ptr %4, align 8, !tbaa !81
  %9 = getelementptr inbounds nuw %struct.object_id, ptr %8, i32 0, i32 0
  %10 = getelementptr inbounds [32 x i8], ptr %9, i64 0, i64 0
  %11 = load ptr, ptr %5, align 8, !tbaa !4
  %12 = getelementptr inbounds nuw %struct.multi_pack_index, ptr %11, i32 0, i32 19
  %13 = load ptr, ptr %12, align 8, !tbaa !73
  %14 = load ptr, ptr %5, align 8, !tbaa !4
  %15 = getelementptr inbounds nuw %struct.multi_pack_index, ptr %14, i32 0, i32 20
  %16 = load ptr, ptr %15, align 8, !tbaa !9
  %17 = load ptr, ptr %5, align 8, !tbaa !4
  %18 = getelementptr inbounds nuw %struct.multi_pack_index, ptr %17, i32 0, i32 31
  %19 = load ptr, ptr %18, align 8, !tbaa !13
  %20 = getelementptr inbounds nuw %struct.repository, ptr %19, i32 0, i32 17
  %21 = load ptr, ptr %20, align 8, !tbaa !15
  %22 = getelementptr inbounds nuw %struct.git_hash_algo, ptr %21, i32 0, i32 2
  %23 = load i64, ptr %22, align 8, !tbaa !34
  %24 = load ptr, ptr %6, align 8, !tbaa !73
  %25 = call i32 @bsearch_hash(ptr noundef %10, ptr noundef %13, ptr noundef %16, i64 noundef %23, ptr noundef %24)
  store i32 %25, ptr %7, align 4, !tbaa !40
  %26 = load ptr, ptr %6, align 8, !tbaa !73
  %27 = icmp ne ptr %26, null
  br i1 %27, label %28, label %35

28:                                               ; preds = %3
  %29 = load ptr, ptr %5, align 8, !tbaa !4
  %30 = getelementptr inbounds nuw %struct.multi_pack_index, ptr %29, i32 0, i32 27
  %31 = load i32, ptr %30, align 8, !tbaa !40
  %32 = load ptr, ptr %6, align 8, !tbaa !73
  %33 = load i32, ptr %32, align 4, !tbaa !40
  %34 = add i32 %33, %31
  store i32 %34, ptr %32, align 4, !tbaa !40
  br label %35

35:                                               ; preds = %28, %3
  %36 = load i32, ptr %7, align 4, !tbaa !40
  call void @llvm.lifetime.end.p0(i64 4, ptr %7) #13
  ret i32 %36
}

; Function Attrs: inlinehint nounwind uwtable
define internal i32 @oidset_size(ptr noundef %0) #2 {
  %2 = alloca ptr, align 8
  store ptr %0, ptr %2, align 8, !tbaa !91
  %3 = load ptr, ptr %2, align 8, !tbaa !91
  %4 = getelementptr inbounds nuw %struct.oidset, ptr %3, i32 0, i32 0
  %5 = getelementptr inbounds nuw %struct.kh_oid_set, ptr %4, i32 0, i32 1
  %6 = load i32, ptr %5, align 4, !tbaa !93
  ret i32 %6
}

; Function Attrs: nounwind uwtable
define dso_local i32 @nth_midxed_pack_int_id(ptr noundef %0, i32 noundef %1) #0 {
  %3 = alloca ptr, align 8
  %4 = alloca i32, align 4
  store ptr %0, ptr %3, align 8, !tbaa !4
  store i32 %1, ptr %4, align 4, !tbaa !40
  %5 = load i32, ptr %4, align 4, !tbaa !40
  %6 = call i32 @midx_for_object(ptr noundef %3, i32 noundef %5)
  store i32 %6, ptr %4, align 4, !tbaa !40
  %7 = load ptr, ptr %3, align 8, !tbaa !4
  %8 = getelementptr inbounds nuw %struct.multi_pack_index, ptr %7, i32 0, i32 28
  %9 = load i32, ptr %8, align 4, !tbaa !40
  %10 = load ptr, ptr %3, align 8, !tbaa !4
  %11 = getelementptr inbounds nuw %struct.multi_pack_index, ptr %10, i32 0, i32 21
  %12 = load ptr, ptr %11, align 8, !tbaa !9
  %13 = load i32, ptr %4, align 4, !tbaa !40
  %14 = zext i32 %13 to i64
  %15 = mul i64 %14, 8
  %16 = getelementptr inbounds nuw i8, ptr %12, i64 %15
  %17 = call i32 @get_be32(ptr noundef %16)
  %18 = add i32 %9, %17
  ret i32 %18
}

; Function Attrs: nounwind uwtable
define internal i32 @midx_for_object(ptr noundef %0, i32 noundef %1) #0 {
  %3 = alloca ptr, align 8
  %4 = alloca i32, align 4
  %5 = alloca ptr, align 8
  store ptr %0, ptr %3, align 8, !tbaa !61
  store i32 %1, ptr %4, align 4, !tbaa !40
  call void @llvm.lifetime.start.p0(i64 8, ptr %5) #13
  %6 = load ptr, ptr %3, align 8, !tbaa !61
  %7 = load ptr, ptr %6, align 8, !tbaa !4
  store ptr %7, ptr %5, align 8, !tbaa !4
  br label %8

8:                                                ; preds = %19, %2
  %9 = load ptr, ptr %5, align 8, !tbaa !4
  %10 = icmp ne ptr %9, null
  br i1 %10, label %11, label %17

11:                                               ; preds = %8
  %12 = load i32, ptr %4, align 4, !tbaa !40
  %13 = load ptr, ptr %5, align 8, !tbaa !4
  %14 = getelementptr inbounds nuw %struct.multi_pack_index, ptr %13, i32 0, i32 27
  %15 = load i32, ptr %14, align 8, !tbaa !40
  %16 = icmp ult i32 %12, %15
  br label %17

17:                                               ; preds = %11, %8
  %18 = phi i1 [ false, %8 ], [ %16, %11 ]
  br i1 %18, label %19, label %23

19:                                               ; preds = %17
  %20 = load ptr, ptr %5, align 8, !tbaa !4
  %21 = getelementptr inbounds nuw %struct.multi_pack_index, ptr %20, i32 0, i32 26
  %22 = load ptr, ptr %21, align 8, !tbaa !4
  store ptr %22, ptr %5, align 8, !tbaa !4
  br label %8, !llvm.loop !83

23:                                               ; preds = %17
  %24 = load ptr, ptr %5, align 8, !tbaa !4
  %25 = icmp ne ptr %24, null
  br i1 %25, label %28, label %26

26:                                               ; preds = %23
  %27 = load i32, ptr %4, align 4, !tbaa !40
  call void (ptr, i32, ptr, ...) @BUG_fl(ptr noundef @.str.43, i32 noundef 424, ptr noundef @.str.64, i32 noundef %27) #14
  unreachable

28:                                               ; preds = %23
  %29 = load i32, ptr %4, align 4, !tbaa !40
  %30 = load ptr, ptr %5, align 8, !tbaa !4
  %31 = getelementptr inbounds nuw %struct.multi_pack_index, ptr %30, i32 0, i32 11
  %32 = load i32, ptr %31, align 4, !tbaa !40
  %33 = load ptr, ptr %5, align 8, !tbaa !4
  %34 = getelementptr inbounds nuw %struct.multi_pack_index, ptr %33, i32 0, i32 27
  %35 = load i32, ptr %34, align 8, !tbaa !40
  %36 = add i32 %32, %35
  %37 = icmp uge i32 %29, %36
  br i1 %37, label %38, label %40

38:                                               ; preds = %28
  %39 = call ptr @_(ptr noundef @.str.65)
  call void (ptr, ...) @die(ptr noundef %39) #14
  unreachable

40:                                               ; preds = %28
  %41 = load ptr, ptr %5, align 8, !tbaa !4
  %42 = load ptr, ptr %3, align 8, !tbaa !61
  store ptr %41, ptr %42, align 8, !tbaa !4
  %43 = load i32, ptr %4, align 4, !tbaa !40
  %44 = load ptr, ptr %5, align 8, !tbaa !4
  %45 = getelementptr inbounds nuw %struct.multi_pack_index, ptr %44, i32 0, i32 27
  %46 = load i32, ptr %45, align 8, !tbaa !40
  %47 = sub i32 %43, %46
  call void @llvm.lifetime.end.p0(i64 8, ptr %5) #13
  ret i32 %47
}

; Function Attrs: nounwind uwtable
define dso_local i32 @bsearch_midx(ptr noundef %0, ptr noundef %1, ptr noundef %2) #0 {
  %4 = alloca i32, align 4
  %5 = alloca ptr, align 8
  %6 = alloca ptr, align 8
  %7 = alloca ptr, align 8
  store ptr %0, ptr %5, align 8, !tbaa !81
  store ptr %1, ptr %6, align 8, !tbaa !4
  store ptr %2, ptr %7, align 8, !tbaa !73
  br label %8

8:                                                ; preds = %19, %3
  %9 = load ptr, ptr %6, align 8, !tbaa !4
  %10 = icmp ne ptr %9, null
  br i1 %10, label %11, label %23

11:                                               ; preds = %8
  %12 = load ptr, ptr %5, align 8, !tbaa !81
  %13 = load ptr, ptr %6, align 8, !tbaa !4
  %14 = load ptr, ptr %7, align 8, !tbaa !73
  %15 = call i32 @bsearch_one_midx(ptr noundef %12, ptr noundef %13, ptr noundef %14)
  %16 = icmp ne i32 %15, 0
  br i1 %16, label %17, label %18

17:                                               ; preds = %11
  store i32 1, ptr %4, align 4
  br label %24

18:                                               ; preds = %11
  br label %19

19:                                               ; preds = %18
  %20 = load ptr, ptr %6, align 8, !tbaa !4
  %21 = getelementptr inbounds nuw %struct.multi_pack_index, ptr %20, i32 0, i32 26
  %22 = load ptr, ptr %21, align 8, !tbaa !4
  store ptr %22, ptr %6, align 8, !tbaa !4
  br label %8, !llvm.loop !82

23:                                               ; preds = %8
  store i32 0, ptr %4, align 4
  br label %24

24:                                               ; preds = %23, %17
  %25 = load i32, ptr %4, align 4
  ret i32 %25
}

; Function Attrs: nounwind uwtable
define dso_local i32 @fill_midx_entry(ptr noundef %0, ptr noundef %1, ptr noundef %2, ptr noundef %3) #0 {
  %5 = alloca i32, align 4
  %6 = alloca ptr, align 8
  %7 = alloca ptr, align 8
  %8 = alloca ptr, align 8
  %9 = alloca ptr, align 8
  %10 = alloca i32, align 4
  %11 = alloca i32, align 4
  %12 = alloca ptr, align 8
  %13 = alloca i32, align 4
  store ptr %0, ptr %6, align 8, !tbaa !13
  store ptr %1, ptr %7, align 8, !tbaa !81
  store ptr %2, ptr %8, align 8, !tbaa !86
  store ptr %3, ptr %9, align 8, !tbaa !4
  call void @llvm.lifetime.start.p0(i64 4, ptr %10) #13
  call void @llvm.lifetime.start.p0(i64 4, ptr %11) #13
  call void @llvm.lifetime.start.p0(i64 8, ptr %12) #13
  %14 = load ptr, ptr %7, align 8, !tbaa !81
  %15 = load ptr, ptr %9, align 8, !tbaa !4
  %16 = call i32 @bsearch_midx(ptr noundef %14, ptr noundef %15, ptr noundef %10)
  %17 = icmp ne i32 %16, 0
  br i1 %17, label %19, label %18

18:                                               ; preds = %4
  store i32 0, ptr %5, align 4
  store i32 1, ptr %13, align 4
  br label %68

19:                                               ; preds = %4
  %20 = load i32, ptr %10, align 4, !tbaa !40
  %21 = call i32 @midx_for_object(ptr noundef %9, i32 noundef %20)
  %22 = load ptr, ptr %9, align 8, !tbaa !4
  %23 = load i32, ptr %10, align 4, !tbaa !40
  %24 = call i32 @nth_midxed_pack_int_id(ptr noundef %22, i32 noundef %23)
  store i32 %24, ptr %11, align 4, !tbaa !40
  %25 = load ptr, ptr %6, align 8, !tbaa !13
  %26 = load ptr, ptr %9, align 8, !tbaa !4
  %27 = load i32, ptr %11, align 4, !tbaa !40
  %28 = call i32 @prepare_midx_pack(ptr noundef %25, ptr noundef %26, i32 noundef %27)
  %29 = icmp ne i32 %28, 0
  br i1 %29, label %30, label %31

30:                                               ; preds = %19
  store i32 0, ptr %5, align 4
  store i32 1, ptr %13, align 4
  br label %68

31:                                               ; preds = %19
  %32 = load ptr, ptr %9, align 8, !tbaa !4
  %33 = getelementptr inbounds nuw %struct.multi_pack_index, ptr %32, i32 0, i32 30
  %34 = load ptr, ptr %33, align 8, !tbaa !52
  %35 = load i32, ptr %11, align 4, !tbaa !40
  %36 = load ptr, ptr %9, align 8, !tbaa !4
  %37 = getelementptr inbounds nuw %struct.multi_pack_index, ptr %36, i32 0, i32 28
  %38 = load i32, ptr %37, align 4, !tbaa !40
  %39 = sub i32 %35, %38
  %40 = zext i32 %39 to i64
  %41 = getelementptr inbounds nuw ptr, ptr %34, i64 %40
  %42 = load ptr, ptr %41, align 8, !tbaa !56
  store ptr %42, ptr %12, align 8, !tbaa !56
  %43 = load ptr, ptr %12, align 8, !tbaa !56
  %44 = call i32 @is_pack_valid(ptr noundef %43)
  %45 = icmp ne i32 %44, 0
  br i1 %45, label %47, label %46

46:                                               ; preds = %31
  store i32 0, ptr %5, align 4
  store i32 1, ptr %13, align 4
  br label %68

47:                                               ; preds = %31
  %48 = load ptr, ptr %12, align 8, !tbaa !56
  %49 = getelementptr inbounds nuw %struct.packed_git, ptr %48, i32 0, i32 9
  %50 = call i32 @oidset_size(ptr noundef %49)
  %51 = icmp ne i32 %50, 0
  br i1 %51, label %52, label %59

52:                                               ; preds = %47
  %53 = load ptr, ptr %12, align 8, !tbaa !56
  %54 = getelementptr inbounds nuw %struct.packed_git, ptr %53, i32 0, i32 9
  %55 = load ptr, ptr %7, align 8, !tbaa !81
  %56 = call i32 @oidset_contains(ptr noundef %54, ptr noundef %55)
  %57 = icmp ne i32 %56, 0
  br i1 %57, label %58, label %59

58:                                               ; preds = %52
  store i32 0, ptr %5, align 4
  store i32 1, ptr %13, align 4
  br label %68

59:                                               ; preds = %52, %47
  %60 = load ptr, ptr %9, align 8, !tbaa !4
  %61 = load i32, ptr %10, align 4, !tbaa !40
  %62 = call i64 @nth_midxed_offset(ptr noundef %60, i32 noundef %61)
  %63 = load ptr, ptr %8, align 8, !tbaa !86
  %64 = getelementptr inbounds nuw %struct.pack_entry, ptr %63, i32 0, i32 0
  store i64 %62, ptr %64, align 8, !tbaa !88
  %65 = load ptr, ptr %12, align 8, !tbaa !56
  %66 = load ptr, ptr %8, align 8, !tbaa !86
  %67 = getelementptr inbounds nuw %struct.pack_entry, ptr %66, i32 0, i32 1
  store ptr %65, ptr %67, align 8, !tbaa !90
  store i32 1, ptr %5, align 4
  store i32 1, ptr %13, align 4
  br label %68

68:                                               ; preds = %59, %58, %46, %30, %18
  call void @llvm.lifetime.end.p0(i64 8, ptr %12) #13
  call void @llvm.lifetime.end.p0(i64 4, ptr %11) #13
  call void @llvm.lifetime.end.p0(i64 4, ptr %10) #13
  %69 = load i32, ptr %5, align 4
  ret i32 %69
}