; Function Attrs: nounwind uwtable
define dso_local range(i32 0, 2) i32 @fill_midx_entry(ptr noundef %0, ptr noundef %1, ptr noundef writeonly captures(none) %2, ptr noundef %3) local_unnamed_addr #1 {
  %5 = alloca i32, align 4
  call void @llvm.lifetime.start.p0(i64 4, ptr nonnull %5) #22
  %.not7.i = icmp eq ptr %3, null
  br i1 %.not7.i, label %bsearch_midx.exit.thread, label %bsearch_one_midx.exit.i

bsearch_one_midx.exit.i:                          ; preds = %4, %21
  %.058.i = phi ptr [ %23, %21 ], [ %3, %4 ]
  %6 = getelementptr inbounds nuw i8, ptr %.058.i, i64 112
  %7 = load ptr, ptr %6, align 8, !tbaa !67
  %8 = getelementptr inbounds nuw i8, ptr %.058.i, i64 120
  %9 = load ptr, ptr %8, align 8, !tbaa !4
  %10 = getelementptr inbounds nuw i8, ptr %.058.i, i64 200
  %11 = load ptr, ptr %10, align 8, !tbaa !11
  %12 = getelementptr inbounds nuw i8, ptr %11, i64 400
  %13 = load ptr, ptr %12, align 8, !tbaa !13
  %14 = getelementptr inbounds nuw i8, ptr %13, i64 16
  %15 = load i64, ptr %14, align 8, !tbaa !32
  %16 = call i32 @bsearch_hash(ptr noundef %1, ptr noundef %7, ptr noundef %9, i64 noundef %15, ptr noundef nonnull %5) #22
  %17 = getelementptr inbounds nuw i8, ptr %.058.i, i64 176
  %18 = load i32, ptr %17, align 8, !tbaa !41
  %19 = load i32, ptr %5, align 4, !tbaa !41
  %20 = add i32 %19, %18
  store i32 %20, ptr %5, align 4, !tbaa !41
  %.not6.i = icmp eq i32 %16, 0
  br i1 %.not6.i, label %21, label %.lr.ph.i15

21:                                               ; preds = %bsearch_one_midx.exit.i
  %22 = getelementptr inbounds nuw i8, ptr %.058.i, i64 168
  %23 = load ptr, ptr %22, align 8, !tbaa !44
  %.not.i = icmp eq ptr %23, null
  br i1 %.not.i, label %bsearch_midx.exit.thread, label %bsearch_one_midx.exit.i, !llvm.loop !75

.lr.ph.i15:                                       ; preds = %bsearch_one_midx.exit.i, %27
  %.019.i = phi ptr [ %.0.i16, %27 ], [ %3, %bsearch_one_midx.exit.i ]
  %24 = getelementptr inbounds nuw i8, ptr %.019.i, i64 176
  %25 = load i32, ptr %24, align 8, !tbaa !41
  %26 = icmp ult i32 %20, %25
  br i1 %26, label %27, label %.critedge.i

27:                                               ; preds = %.lr.ph.i15
  %28 = getelementptr inbounds nuw i8, ptr %.019.i, i64 168
  %.0.i16 = load ptr, ptr %28, align 8, !tbaa !44
  %.not.i17 = icmp eq ptr %.0.i16, null
  br i1 %.not.i17, label %.critedge15.i, label %.lr.ph.i15, !llvm.loop !76

.critedge15.i:                                    ; preds = %27
  call void (ptr, i32, ptr, ...) @BUG_fl(ptr noundef nonnull @.str.43, i32 noundef 424, ptr noundef nonnull @.str.64, i32 noundef %20) #24
  unreachable

.critedge.i:                                      ; preds = %.lr.ph.i15
  %29 = getelementptr inbounds nuw i8, ptr %.019.i, i64 60
  %30 = load i32, ptr %29, align 4, !tbaa !41
  %31 = add i32 %30, %25
  %.not14.i = icmp ult i32 %20, %31
  br i1 %.not14.i, label %.lr.ph.i.i, label %32

32:                                               ; preds = %.critedge.i
  %33 = call fastcc ptr @_(ptr noundef nonnull @.str.65)
  call void (ptr, ...) @die(ptr noundef %33) #24
  unreachable

.lr.ph.i.i:                                       ; preds = %.critedge.i, %37
  %.019.i.i = phi ptr [ %.0.i.i, %37 ], [ %.019.i, %.critedge.i ]
  %34 = getelementptr inbounds nuw i8, ptr %.019.i.i, i64 176
  %35 = load i32, ptr %34, align 8, !tbaa !41
  %36 = icmp ult i32 %20, %35
  br i1 %36, label %37, label %.critedge.i.i

37:                                               ; preds = %.lr.ph.i.i
  %38 = getelementptr inbounds nuw i8, ptr %.019.i.i, i64 168
  %.0.i.i = load ptr, ptr %38, align 8, !tbaa !44
  %.not.i.i = icmp eq ptr %.0.i.i, null
  br i1 %.not.i.i, label %.critedge15.i.i, label %.lr.ph.i.i, !llvm.loop !76

.critedge15.i.i:                                  ; preds = %37
  call void (ptr, i32, ptr, ...) @BUG_fl(ptr noundef nonnull @.str.43, i32 noundef 424, ptr noundef nonnull @.str.64, i32 noundef %20) #24
  unreachable

.critedge.i.i:                                    ; preds = %.lr.ph.i.i
  %39 = getelementptr inbounds nuw i8, ptr %.019.i.i, i64 60
  %40 = load i32, ptr %39, align 4, !tbaa !41
  %41 = add i32 %40, %35
  %.not14.i.i = icmp ult i32 %20, %41
  br i1 %.not14.i.i, label %nth_midxed_pack_int_id.exit, label %42

42:                                               ; preds = %.critedge.i.i
  %43 = call fastcc ptr @_(ptr noundef nonnull @.str.65)
  call void (ptr, ...) @die(ptr noundef %43) #24
  unreachable

nth_midxed_pack_int_id.exit:                      ; preds = %.critedge.i.i
  %44 = sub i32 %20, %35
  %45 = getelementptr inbounds nuw i8, ptr %.019.i.i, i64 180
  %46 = load i32, ptr %45, align 4, !tbaa !41
  %47 = getelementptr inbounds nuw i8, ptr %.019.i.i, i64 128
  %48 = load ptr, ptr %47, align 8, !tbaa !4
  %49 = zext i32 %44 to i64
  %50 = shl nuw nsw i64 %49, 3
  %51 = getelementptr inbounds nuw i8, ptr %48, i64 %50
  %52 = load i8, ptr %51, align 1, !tbaa !43
  %53 = zext i8 %52 to i32
  %54 = shl nuw i32 %53, 24
  %55 = getelementptr inbounds nuw i8, ptr %51, i64 1
  %56 = load i8, ptr %55, align 1, !tbaa !43
  %57 = zext i8 %56 to i32
  %58 = shl nuw nsw i32 %57, 16
  %59 = or disjoint i32 %58, %54
  %60 = getelementptr inbounds nuw i8, ptr %51, i64 2
  %61 = load i8, ptr %60, align 1, !tbaa !43
  %62 = zext i8 %61 to i32
  %63 = shl nuw nsw i32 %62, 8
  %64 = or disjoint i32 %59, %63
  %65 = getelementptr inbounds nuw i8, ptr %51, i64 3
  %66 = load i8, ptr %65, align 1, !tbaa !43
  %67 = zext i8 %66 to i32
  %68 = or disjoint i32 %64, %67
  %69 = add i32 %68, %46
  %70 = call i32 @prepare_midx_pack(ptr noundef %0, ptr noundef nonnull %.019.i, i32 noundef %69)
  %.not11 = icmp eq i32 %70, 0
  br i1 %.not11, label %71, label %bsearch_midx.exit.thread

71:                                               ; preds = %nth_midxed_pack_int_id.exit
  %72 = getelementptr inbounds nuw i8, ptr %.019.i, i64 192
  %73 = load ptr, ptr %72, align 8, !tbaa !50
  %74 = getelementptr inbounds nuw i8, ptr %.019.i, i64 180
  %75 = load i32, ptr %74, align 4, !tbaa !41
  %76 = sub i32 %69, %75
  %77 = zext i32 %76 to i64
  %78 = getelementptr inbounds nuw ptr, ptr %73, i64 %77
  %79 = load ptr, ptr %78, align 8, !tbaa !53
  %80 = call i32 @is_pack_valid(ptr noundef %79) #22
  %.not12 = icmp eq i32 %80, 0
  br i1 %.not12, label %bsearch_midx.exit.thread, label %81

81:                                               ; preds = %71
  %82 = getelementptr i8, ptr %79, i64 92
  %.val = load i32, ptr %82, align 4, !tbaa !80
  %.not13 = icmp eq i32 %.val, 0
  br i1 %.not13, label %86, label %83

83:                                               ; preds = %81
  %84 = getelementptr inbounds nuw i8, ptr %79, i64 88
  %85 = call i32 @oidset_contains(ptr noundef nonnull %84, ptr noundef %1) #22
  %.not14 = icmp eq i32 %85, 0
  br i1 %.not14, label %86, label %bsearch_midx.exit.thread

86:                                               ; preds = %83, %81
  %87 = load i32, ptr %5, align 4, !tbaa !41
  %88 = call i64 @nth_midxed_offset(ptr noundef nonnull %.019.i, i32 noundef %87)
  store i64 %88, ptr %2, align 8, !tbaa !83
  %89 = getelementptr inbounds nuw i8, ptr %2, i64 8
  store ptr %79, ptr %89, align 8, !tbaa !85
  br label %bsearch_midx.exit.thread

bsearch_midx.exit.thread:                         ; preds = %21, %4, %83, %71, %nth_midxed_pack_int_id.exit, %86
  %.0 = phi i32 [ 1, %86 ], [ 0, %nth_midxed_pack_int_id.exit ], [ 0, %71 ], [ 0, %83 ], [ 0, %4 ], [ 0, %21 ]
  call void @llvm.lifetime.end.p0(i64 4, ptr nonnull %5) #22
  ret i32 %.0
}